	.file	"threadTest.cpp"
	.text
.Ltext0:
	.section	.rodata
	.type	_ZStL19piecewise_construct, @object
	.size	_ZStL19piecewise_construct, 1
_ZStL19piecewise_construct:
	.zero	1
	.local	_ZStL8__ioinit
	.comm	_ZStL8__ioinit,1,1
.LC0:
	.string	"%d"
	.text
	.globl	main
	.type	main, @function
main:
.LFB1196:
	.file 1 "../src/threadTest.cpp"
	.loc 1 7 0
	.cfi_startproc
	pushq	%rbp
	.cfi_def_cfa_offset 16
	.cfi_offset 6, -16
	movq	%rsp, %rbp
	.cfi_def_cfa_register 6
	pushq	%rbx
	subq	$1000072, %rsp
	.cfi_offset 3, -24
	.loc 1 7 0
	movq	%fs:40, %rax
	movq	%rax, -24(%rbp)
	xorl	%eax, %eax
.LBB2:
	.loc 1 8 0
	movl	$0, -1000052(%rbp)
	movl	$0, -1000048(%rbp)
	.loc 1 11 0
	leaq	-1000072(%rbp), %rax
	movq	%rax, %rsi
	movl	$.LC0, %edi
	movl	$0, %eax
	call	scanf
	.loc 1 13 0
	movl	-1000072(%rbp), %eax
	cltq
	movl	$4, %esi
	movq	%rax, %rdi
	call	calloc
	movq	%rax, -1000040(%rbp)
	.loc 1 14 0
	movl	$1, -1000060(%rbp)
	jmp	.L2
.L3:
	.loc 1 16 0
	leaq	-1000068(%rbp), %rax
	movq	%rax, %rsi
	movl	$.LC0, %edi
	movl	$0, %eax
	call	scanf
	.loc 1 17 0
	movl	-1000068(%rbp), %eax
	cltq
	leaq	0(,%rax,4), %rdx
	movq	-1000040(%rbp), %rax
	addq	%rdx, %rax
	movl	$1, (%rax)
	.loc 1 14 0
	addl	$1, -1000060(%rbp)
.L2:
	.loc 1 14 0 is_stmt 0 discriminator 1
	movl	-1000072(%rbp), %eax
	cmpl	%eax, -1000060(%rbp)
	jle	.L3
	.loc 1 20 0 is_stmt 1
	leaq	-1000064(%rbp), %rax
	movq	%rax, %rsi
	movl	$.LC0, %edi
	movl	$0, %eax
	call	scanf
	.loc 1 22 0
	movl	$1, -1000060(%rbp)
	jmp	.L4
.L13:
	.loc 1 24 0
	movl	$0, -1000044(%rbp)
	movl	$0, -1000052(%rbp)
	.loc 1 25 0
	leaq	-1000032(%rbp), %rax
	movq	%rax, %rdi
	call	gets
	.loc 1 26 0
	movl	$0, -1000056(%rbp)
	jmp	.L5
.L11:
	.loc 1 28 0
	movl	$0, -1000044(%rbp)
	.loc 1 29 0
	jmp	.L6
.L8:
	.loc 1 30 0
	movl	-1000044(%rbp), %edx
	movl	%edx, %eax
	sall	$2, %eax
	addl	%edx, %eax
	addl	%eax, %eax
	movl	%eax, %ecx
	movl	-1000056(%rbp), %eax
	leal	1(%rax), %edx
	movl	%edx, -1000056(%rbp)
	cltq
	movzbl	-1000032(%rbp,%rax), %eax
	movsbl	%al, %eax
	addl	%ecx, %eax
	subl	$48, %eax
	movl	%eax, -1000044(%rbp)
.L6:
	.loc 1 29 0 discriminator 1
	movl	-1000056(%rbp), %eax
	cltq
	movzbl	-1000032(%rbp,%rax), %eax
	cmpb	$47, %al
	jle	.L7
	.loc 1 29 0 is_stmt 0 discriminator 2
	movl	-1000056(%rbp), %eax
	cltq
	movzbl	-1000032(%rbp,%rax), %eax
	cmpb	$57, %al
	jle	.L8
.L7:
	.loc 1 31 0 is_stmt 1
	movl	-1000044(%rbp), %eax
	cltq
	leaq	0(,%rax,4), %rdx
	movq	-1000040(%rbp), %rax
	addq	%rdx, %rax
	movl	(%rax), %eax
	cmpl	$1, %eax
	jne	.L9
	.loc 1 32 0
	addl	$1, -1000052(%rbp)
.L9:
	.loc 1 33 0
	movl	-1000072(%rbp), %eax
	cmpl	%eax, -1000052(%rbp)
	jne	.L10
	.loc 1 34 0
	nop
.L10:
	.loc 1 26 0
	addl	$1, -1000056(%rbp)
.L5:
	.loc 1 26 0 is_stmt 0 discriminator 1
	movl	-1000056(%rbp), %eax
	movslq	%eax, %rbx
	leaq	-1000032(%rbp), %rax
	movq	%rax, %rdi
	call	strlen
	cmpq	%rax, %rbx
	jb	.L11
	.loc 1 36 0 is_stmt 1
	movl	-1000072(%rbp), %eax
	cmpl	%eax, -1000052(%rbp)
	jne	.L12
	.loc 1 36 0 is_stmt 0 discriminator 1
	addl	$1, -1000048(%rbp)
.L12:
	.loc 1 22 0 is_stmt 1
	addl	$1, -1000060(%rbp)
.L4:
	.loc 1 22 0 is_stmt 0 discriminator 1
	movl	-1000064(%rbp), %eax
	addl	$1, %eax
	cmpl	-1000060(%rbp), %eax
	jge	.L13
	.loc 1 38 0 is_stmt 1
	movl	-1000048(%rbp), %eax
	movl	%eax, %esi
	movl	$_ZSt4cout, %edi
	call	_ZNSolsEi
	movl	$_ZSt4endlIcSt11char_traitsIcEERSt13basic_ostreamIT_T0_ES6_, %esi
	movq	%rax, %rdi
	call	_ZNSolsEPFRSoS_E
	.loc 1 39 0
	movl	$0, %eax
.LBE2:
	.loc 1 40 0
	movq	-24(%rbp), %rcx
	xorq	%fs:40, %rcx
	je	.L15
	call	__stack_chk_fail
.L15:
	addq	$1000072, %rsp
	popq	%rbx
	popq	%rbp
	.cfi_def_cfa 7, 8
	ret
	.cfi_endproc
.LFE1196:
	.size	main, .-main
	.type	_Z41__static_initialization_and_destruction_0ii, @function
_Z41__static_initialization_and_destruction_0ii:
.LFB1348:
	.loc 1 40 0
	.cfi_startproc
	pushq	%rbp
	.cfi_def_cfa_offset 16
	.cfi_offset 6, -16
	movq	%rsp, %rbp
	.cfi_def_cfa_register 6
	subq	$16, %rsp
	movl	%edi, -4(%rbp)
	movl	%esi, -8(%rbp)
	.loc 1 40 0
	cmpl	$1, -4(%rbp)
	jne	.L16
	.loc 1 40 0 is_stmt 0 discriminator 1
	cmpl	$65535, -8(%rbp)
	jne	.L16
	.file 2 "/usr/include/c++/4.8/iostream"
	.loc 2 74 0 is_stmt 1
	movl	$_ZStL8__ioinit, %edi
	call	_ZNSt8ios_base4InitC1Ev
	movl	$__dso_handle, %edx
	movl	$_ZStL8__ioinit, %esi
	movl	$_ZNSt8ios_base4InitD1Ev, %edi
	call	__cxa_atexit
.L16:
	.loc 1 40 0
	leave
	.cfi_def_cfa 7, 8
	ret
	.cfi_endproc
.LFE1348:
	.size	_Z41__static_initialization_and_destruction_0ii, .-_Z41__static_initialization_and_destruction_0ii
	.type	_GLOBAL__sub_I_main, @function
_GLOBAL__sub_I_main:
.LFB1349:
	.loc 1 40 0
	.cfi_startproc
	pushq	%rbp
	.cfi_def_cfa_offset 16
	.cfi_offset 6, -16
	movq	%rsp, %rbp
	.cfi_def_cfa_register 6
	.loc 1 40 0
	movl	$65535, %esi
	movl	$1, %edi
	call	_Z41__static_initialization_and_destruction_0ii
	popq	%rbp
	.cfi_def_cfa 7, 8
	ret
	.cfi_endproc
.LFE1349:
	.size	_GLOBAL__sub_I_main, .-_GLOBAL__sub_I_main
	.section	.init_array,"aw"
	.align 8
	.quad	_GLOBAL__sub_I_main
	.text
.Letext0:
	.file 3 "/usr/include/libio.h"
	.file 4 "/usr/include/stdio.h"
	.file 5 "<built-in>"
	.file 6 "/usr/lib/gcc/x86_64-linux-gnu/4.8/include/stddef.h"
	.file 7 "/usr/include/wchar.h"
	.file 8 "/usr/include/c++/4.8/cwchar"
	.file 9 "/usr/include/c++/4.8/bits/exception_ptr.h"
	.file 10 "/usr/include/x86_64-linux-gnu/c++/4.8/bits/c++config.h"
	.file 11 "/usr/include/c++/4.8/bits/char_traits.h"
	.file 12 "/usr/include/c++/4.8/cstdint"
	.file 13 "/usr/include/c++/4.8/clocale"
	.file 14 "/usr/include/c++/4.8/cstdlib"
	.file 15 "/usr/include/c++/4.8/cstdio"
	.file 16 "/usr/include/c++/4.8/bits/ios_base.h"
	.file 17 "/usr/include/c++/4.8/cwctype"
	.file 18 "/usr/include/c++/4.8/iosfwd"
	.file 19 "/usr/include/time.h"
	.file 20 "/usr/include/c++/4.8/ext/new_allocator.h"
	.file 21 "/usr/include/c++/4.8/ext/numeric_traits.h"
	.file 22 "/usr/include/c++/4.8/debug/debug.h"
	.file 23 "/usr/include/stdint.h"
	.file 24 "/usr/include/locale.h"
	.file 25 "/usr/include/x86_64-linux-gnu/bits/types.h"
	.file 26 "/usr/include/x86_64-linux-gnu/c++/4.8/bits/atomic_word.h"
	.file 27 "/usr/include/stdlib.h"
	.file 28 "/usr/include/_G_config.h"
	.file 29 "/usr/include/wctype.h"
	.file 30 "/usr/include/c++/4.8/bits/stl_pair.h"
	.section	.note.GNU-stack,"",@progbits
